(lp0
(dp1
S'reward'
p2
I1
sS'card_on_top_before'
p3
S'yellow:6'
p4
sS'arthur_before'
p5
(lp6
S'blue:4'
p7
aS'blue:2'
p8
aS'yellow:2'
p9
aS'blue:7'
p10
aS'color_desire:nr:1'
p11
aS'green:turn_around'
p12
aS'green:7'
p13
asS'state_before'
p14
(dp15
S'NecessaryValue'
p16
S'6'
p17
sS'NrOfCardsTaking'
p18
I0
sS'NecessaryColor'
p19
S'yellow'
p20
sS'CurrentPlayerIndex'
p21
I0
sS'IsForwardPlayingDirection'
p22
I01
ssS'harald_before'
p23
(lp24
S'blue:1'
p25
aS'red:6'
p26
aS'red:9'
p27
aS'color_desire:nr:3'
p28
aS'red:2'
p29
aS'red:turn_around'
p30
aS'yellow:3'
p31
asS'arthur_after'
p32
(lp33
g7
ag8
ag9
ag10
ag12
ag13
asS'hans_before'
p34
(lp35
S'red:0'
p36
aS'green:2'
p37
aS'yellow:7'
p38
aS'blue:turn_around'
p39
aS'yellow:skip'
p40
aS'take_4:nr:2'
p41
aS'green:skip'
p42
asS'used_action'
p43
S'play:color_desire:desired_color:blue'
p44
sS'state_after'
p45
(dp46
g16
S'color_desire'
p47
sg18
I0
sg19
S'blue'
p48
sg21
I1
sg22
I01
ssS'card_on_top_after'
p49
g11
sS'johannes_before'
p50
(lp51
S'yellow:8'
p52
aS'red:5'
p53
aS'green:5'
p54
aS'green:3'
p55
aS'yellow:5'
p56
aS'yellow:9'
p57
aS'color_desire:nr:2'
p58
asa(dp59
S'card_on_top_before'
p60
S'color_desire:nr:1'
p61
sS'arthur_before'
p62
(lp63
S'blue:4'
p64
aS'blue:2'
p65
aS'yellow:2'
p66
aS'blue:7'
p67
aS'green:turn_around'
p68
aS'green:7'
p69
asS'harald_before'
p70
(lp71
S'blue:1'
p72
aS'red:6'
p73
aS'red:9'
p74
aS'color_desire:nr:3'
p75
aS'red:2'
p76
aS'red:turn_around'
p77
aS'yellow:3'
p78
asS'hans_before'
p79
(lp80
S'red:0'
p81
aS'green:2'
p82
aS'yellow:7'
p83
aS'blue:turn_around'
p84
aS'yellow:skip'
p85
aS'take_4:nr:2'
p86
aS'green:skip'
p87
asS'used_action'
p88
S'play:blue:turn_around'
p89
sS'state_after'
p90
(dp91
S'NecessaryValue'
p92
S'turn_around'
p93
sS'NrOfCardsTaking'
p94
I0
sS'NecessaryColor'
p95
S'blue'
p96
sS'CurrentPlayerIndex'
p97
I0
sS'IsForwardPlayingDirection'
p98
I00
ssS'reward'
p99
I1
sS'card_on_top_after'
p100
g84
sS'hans_after'
p101
(lp102
g81
ag82
ag83
ag85
ag86
ag87
asS'johannes_before'
p103
(lp104
S'yellow:8'
p105
aS'red:5'
p106
aS'green:5'
p107
aS'green:3'
p108
aS'yellow:5'
p109
aS'yellow:9'
p110
aS'color_desire:nr:2'
p111
asS'state_before'
p112
(dp113
g92
g47
sg94
I0
sg95
g48
sg97
I1
sg98
I01
ssa(dp114
S'reward'
p115
I1
sS'card_on_top_after'
p116
S'blue:2'
p117
sS'card_on_top_before'
p118
S'blue:turn_around'
p119
sS'arthur_before'
p120
(lp121
S'blue:4'
p122
ag117
aS'yellow:2'
p123
aS'blue:7'
p124
aS'green:turn_around'
p125
aS'green:7'
p126
asS'harald_before'
p127
(lp128
S'blue:1'
p129
aS'red:6'
p130
aS'red:9'
p131
aS'color_desire:nr:3'
p132
aS'red:2'
p133
aS'red:turn_around'
p134
aS'yellow:3'
p135
asS'arthur_after'
p136
(lp137
g122
ag123
ag124
ag125
ag126
asS'hans_before'
p138
(lp139
S'red:0'
p140
aS'green:2'
p141
aS'yellow:7'
p142
aS'yellow:skip'
p143
aS'take_4:nr:2'
p144
aS'green:skip'
p145
asS'used_action'
p146
S'play:blue:2'
p147
sS'state_before'
p148
(dp149
S'NecessaryValue'
p150
g93
sS'NrOfCardsTaking'
p151
I0
sS'NecessaryColor'
p152
g96
sS'CurrentPlayerIndex'
p153
I0
sS'IsForwardPlayingDirection'
p154
I00
ssS'state_after'
p155
(dp156
g150
S'2'
p157
sg151
I0
sg152
S'blue'
p158
sg153
I3
sg154
I00
ssS'johannes_before'
p159
(lp160
S'yellow:8'
p161
aS'red:5'
p162
aS'green:5'
p163
aS'green:3'
p164
aS'yellow:5'
p165
aS'yellow:9'
p166
aS'color_desire:nr:2'
p167
asa.