(dp0
S'game'
p1
(dp2
S'cards'
p3
(lp4
cnumpy.core.multiarray
scalar
p5
(cnumpy
dtype
p6
(S'i8'
p7
I0
I1
tp8
Rp9
(I3
S'<'
p10
NNNI-1
I-1
I0
tp11
bS'\x0f\x00\x00\x00\x00\x00\x00\x00'
p12
tp13
Rp14
ag5
(g9
S'\x19\x00\x00\x00\x00\x00\x00\x00'
p15
tp16
Rp17
ag5
(g9
S'4\x00\x00\x00\x00\x00\x00\x00'
p18
tp19
Rp20
ag5
(g9
S'\x06\x00\x00\x00\x00\x00\x00\x00'
p21
tp22
Rp23
ag5
(g9
S'\x15\x00\x00\x00\x00\x00\x00\x00'
p24
tp25
Rp26
ag5
(g9
S'\x16\x00\x00\x00\x00\x00\x00\x00'
p27
tp28
Rp29
ag5
(g9
S'2\x00\x00\x00\x00\x00\x00\x00'
p30
tp31
Rp32
ag5
(g9
S'\x13\x00\x00\x00\x00\x00\x00\x00'
p33
tp34
Rp35
ag5
(g9
S':\x00\x00\x00\x00\x00\x00\x00'
p36
tp37
Rp38
ag5
(g9
S'\x10\x00\x00\x00\x00\x00\x00\x00'
p39
tp40
Rp41
ag5
(g9
S'\x1a\x00\x00\x00\x00\x00\x00\x00'
p42
tp43
Rp44
ag5
(g9
S';\x00\x00\x00\x00\x00\x00\x00'
p45
tp46
Rp47
ag5
(g9
S'\x1e\x00\x00\x00\x00\x00\x00\x00'
p48
tp49
Rp50
ag5
(g9
S'1\x00\x00\x00\x00\x00\x00\x00'
p51
tp52
Rp53
ag5
(g9
S'.\x00\x00\x00\x00\x00\x00\x00'
p54
tp55
Rp56
ag5
(g9
S'8\x00\x00\x00\x00\x00\x00\x00'
p57
tp58
Rp59
ag5
(g9
S'#\x00\x00\x00\x00\x00\x00\x00'
p60
tp61
Rp62
ag5
(g9
S'%\x00\x00\x00\x00\x00\x00\x00'
p63
tp64
Rp65
ag5
(g9
S'*\x00\x00\x00\x00\x00\x00\x00'
p66
tp67
Rp68
ag5
(g9
S'\x01\x00\x00\x00\x00\x00\x00\x00'
p69
tp70
Rp71
ag5
(g9
S'\x0c\x00\x00\x00\x00\x00\x00\x00'
p72
tp73
Rp74
ag5
(g9
S'\x00\x00\x00\x00\x00\x00\x00\x00'
p75
tp76
Rp77
ag5
(g9
S'\x1b\x00\x00\x00\x00\x00\x00\x00'
p78
tp79
Rp80
ag5
(g9
S'\x04\x00\x00\x00\x00\x00\x00\x00'
p81
tp82
Rp83
ag5
(g9
S'+\x00\x00\x00\x00\x00\x00\x00'
p84
tp85
Rp86
ag5
(g9
S' \x00\x00\x00\x00\x00\x00\x00'
p87
tp88
Rp89
ag5
(g9
S'\x0b\x00\x00\x00\x00\x00\x00\x00'
p90
tp91
Rp92
ag5
(g9
S'7\x00\x00\x00\x00\x00\x00\x00'
p93
tp94
Rp95
ag5
(g9
S'\x17\x00\x00\x00\x00\x00\x00\x00'
p96
tp97
Rp98
ag5
(g9
S'\x12\x00\x00\x00\x00\x00\x00\x00'
p99
tp100
Rp101
ag5
(g9
S'\r\x00\x00\x00\x00\x00\x00\x00'
p102
tp103
Rp104
ag5
(g9
S'"\x00\x00\x00\x00\x00\x00\x00'
p105
tp106
Rp107
ag5
(g9
S'\x18\x00\x00\x00\x00\x00\x00\x00'
p108
tp109
Rp110
ag5
(g9
S'/\x00\x00\x00\x00\x00\x00\x00'
p111
tp112
Rp113
ag5
(g9
S'(\x00\x00\x00\x00\x00\x00\x00'
p114
tp115
Rp116
asS'players'
p117
(lp118
(dp119
S'initialized'
p120
I01
sS'name'
p121
S'arthur'
p122
sS'card_idxs_in_hand'
p123
(lp124
g5
(g9
S'\x11\x00\x00\x00\x00\x00\x00\x00'
p125
tp126
Rp127
ag5
(g9
S'\x02\x00\x00\x00\x00\x00\x00\x00'
p128
tp129
Rp130
ag5
(g9
S'\x14\x00\x00\x00\x00\x00\x00\x00'
p131
tp132
Rp133
ag5
(g9
S'&\x00\x00\x00\x00\x00\x00\x00'
p134
tp135
Rp136
ag5
(g9
S'!\x00\x00\x00\x00\x00\x00\x00'
p137
tp138
Rp139
asS'ai_model_name'
p140
S'First Model'
p141
sa(dp142
g120
I01
sg121
S'hans'
p143
sg123
(lp144
g5
(g9
S"'\x00\x00\x00\x00\x00\x00\x00"
p145
tp146
Rp147
ag5
(g9
S'\x1c\x00\x00\x00\x00\x00\x00\x00'
p148
tp149
Rp150
ag5
(g9
S'\x07\x00\x00\x00\x00\x00\x00\x00'
p151
tp152
Rp153
ag5
(g9
S'\n\x00\x00\x00\x00\x00\x00\x00'
p154
tp155
Rp156
ag5
(g9
S'9\x00\x00\x00\x00\x00\x00\x00'
p157
tp158
Rp159
ag5
(g9
S'$\x00\x00\x00\x00\x00\x00\x00'
p160
tp161
Rp162
asg140
g141
sa(dp163
g120
I01
sg121
S'johannes'
p164
sg123
(lp165
g5
(g9
S'\x08\x00\x00\x00\x00\x00\x00\x00'
p166
tp167
Rp168
ag5
(g9
S',\x00\x00\x00\x00\x00\x00\x00'
p169
tp170
Rp171
ag5
(g9
S'\x1f\x00\x00\x00\x00\x00\x00\x00'
p172
tp173
Rp174
ag5
(g9
S'\x1d\x00\x00\x00\x00\x00\x00\x00'
p175
tp176
Rp177
ag5
(g9
S'\x05\x00\x00\x00\x00\x00\x00\x00'
p178
tp179
Rp180
ag5
(g9
S'\t\x00\x00\x00\x00\x00\x00\x00'
p181
tp182
Rp183
ag5
(g9
S'5\x00\x00\x00\x00\x00\x00\x00'
p184
tp185
Rp186
asg140
g141
sa(dp187
g120
I01
sg121
S'harald'
p188
sg123
(lp189
g5
(g9
S'\x0e\x00\x00\x00\x00\x00\x00\x00'
p190
tp191
Rp192
ag5
(g9
S'-\x00\x00\x00\x00\x00\x00\x00'
p193
tp194
Rp195
ag5
(g9
S'0\x00\x00\x00\x00\x00\x00\x00'
p196
tp197
Rp198
ag5
(g9
S'6\x00\x00\x00\x00\x00\x00\x00'
p199
tp200
Rp201
ag5
(g9
S')\x00\x00\x00\x00\x00\x00\x00'
p202
tp203
Rp204
ag5
(g9
S'3\x00\x00\x00\x00\x00\x00\x00'
p205
tp206
Rp207
ag5
(g9
S'\x03\x00\x00\x00\x00\x00\x00\x00'
p208
tp209
Rp210
asg140
S''
p211
sasS'only_AIs'
p212
I00
sS'gamestate'
p213
(igamestate_cards_actions_container
GameState
p214
(dp215
S'_GameState__necessary_color'
p216
S'blue'
p217
sS'_GameState__number_of_cards_taking'
p218
I0
sS'_GameState__is_direction_forward'
p219
I00
sS'_GameState__necessary_value'
p220
S'2'
p221
sS'_GameState__curr_player_index'
p222
I3
sbssS'log'
p223
(lp224
(dp225
S'reward'
p226
I1
sS'card_on_top_before'
p227
S'yellow:6'
p228
sS'arthur_before'
p229
(lp230
S'blue:4'
p231
aS'blue:2'
p232
aS'yellow:2'
p233
aS'blue:7'
p234
aS'color_desire:nr:1'
p235
aS'green:turn_around'
p236
aS'green:7'
p237
asS'state_before'
p238
(dp239
S'NecessaryValue'
p240
S'6'
p241
sS'NrOfCardsTaking'
p242
I0
sS'NecessaryColor'
p243
S'yellow'
p244
sS'CurrentPlayerIndex'
p245
I0
sS'IsForwardPlayingDirection'
p246
I01
ssS'harald_before'
p247
(lp248
S'blue:1'
p249
aS'red:6'
p250
aS'red:9'
p251
aS'color_desire:nr:3'
p252
aS'red:2'
p253
aS'red:turn_around'
p254
aS'yellow:3'
p255
asS'arthur_after'
p256
(lp257
g231
ag232
ag233
ag234
ag236
ag237
asS'hans_before'
p258
(lp259
S'red:0'
p260
aS'green:2'
p261
aS'yellow:7'
p262
aS'blue:turn_around'
p263
aS'yellow:skip'
p264
aS'take_4:nr:2'
p265
aS'green:skip'
p266
asS'used_action'
p267
S'play:color_desire:desired_color:blue'
p268
sS'state_after'
p269
(dp270
g240
S'color_desire'
p271
sg242
I0
sg243
S'blue'
p272
sg245
I1
sg246
I01
ssS'card_on_top_after'
p273
g235
sS'johannes_before'
p274
(lp275
S'yellow:8'
p276
aS'red:5'
p277
aS'green:5'
p278
aS'green:3'
p279
aS'yellow:5'
p280
aS'yellow:9'
p281
aS'color_desire:nr:2'
p282
asa(dp283
S'card_on_top_before'
p284
S'color_desire:nr:1'
p285
sS'arthur_before'
p286
(lp287
S'blue:4'
p288
aS'blue:2'
p289
aS'yellow:2'
p290
aS'blue:7'
p291
aS'green:turn_around'
p292
aS'green:7'
p293
asS'harald_before'
p294
(lp295
S'blue:1'
p296
aS'red:6'
p297
aS'red:9'
p298
aS'color_desire:nr:3'
p299
aS'red:2'
p300
aS'red:turn_around'
p301
aS'yellow:3'
p302
asS'hans_before'
p303
(lp304
S'red:0'
p305
aS'green:2'
p306
aS'yellow:7'
p307
aS'blue:turn_around'
p308
aS'yellow:skip'
p309
aS'take_4:nr:2'
p310
aS'green:skip'
p311
asS'used_action'
p312
S'play:blue:turn_around'
p313
sS'state_after'
p314
(dp315
S'NecessaryValue'
p316
S'turn_around'
p317
sS'NrOfCardsTaking'
p318
I0
sS'NecessaryColor'
p319
S'blue'
p320
sS'CurrentPlayerIndex'
p321
I0
sS'IsForwardPlayingDirection'
p322
I00
ssS'reward'
p323
I1
sS'card_on_top_after'
p324
g308
sS'hans_after'
p325
(lp326
g305
ag306
ag307
ag309
ag310
ag311
asS'johannes_before'
p327
(lp328
S'yellow:8'
p329
aS'red:5'
p330
aS'green:5'
p331
aS'green:3'
p332
aS'yellow:5'
p333
aS'yellow:9'
p334
aS'color_desire:nr:2'
p335
asS'state_before'
p336
(dp337
g316
g271
sg318
I0
sg319
g272
sg321
I1
sg322
I01
ssa(dp338
S'reward'
p339
I1
sS'card_on_top_after'
p340
S'blue:2'
p341
sS'card_on_top_before'
p342
S'blue:turn_around'
p343
sS'arthur_before'
p344
(lp345
S'blue:4'
p346
ag341
aS'yellow:2'
p347
aS'blue:7'
p348
aS'green:turn_around'
p349
aS'green:7'
p350
asS'harald_before'
p351
(lp352
S'blue:1'
p353
aS'red:6'
p354
aS'red:9'
p355
aS'color_desire:nr:3'
p356
aS'red:2'
p357
aS'red:turn_around'
p358
aS'yellow:3'
p359
asS'arthur_after'
p360
(lp361
g346
ag347
ag348
ag349
ag350
asS'hans_before'
p362
(lp363
S'red:0'
p364
aS'green:2'
p365
aS'yellow:7'
p366
aS'yellow:skip'
p367
aS'take_4:nr:2'
p368
aS'green:skip'
p369
asS'used_action'
p370
S'play:blue:2'
p371
sS'state_before'
p372
(dp373
S'NecessaryValue'
p374
g317
sS'NrOfCardsTaking'
p375
I0
sS'NecessaryColor'
p376
g320
sS'CurrentPlayerIndex'
p377
I0
sS'IsForwardPlayingDirection'
p378
I00
ssS'state_after'
p379
(dp380
g374
g221
sg375
I0
sg376
g217
sg377
I3
sg378
I00
ssS'johannes_before'
p381
(lp382
S'yellow:8'
p383
aS'red:5'
p384
aS'green:5'
p385
aS'green:3'
p386
aS'yellow:5'
p387
aS'yellow:9'
p388
aS'color_desire:nr:2'
p389
asas.